; Function Attrs: nounwind uwtable
define internal fastcc i32 @tt_face_load_fpgm(ptr noundef %0, ptr noundef %1) unnamed_addr #2 {
  %3 = alloca i64, align 8
  %4 = getelementptr inbounds i8, ptr %0, i64 832
  %5 = load ptr, ptr %4, align 8
  %6 = call i32 %5(ptr noundef %0, i64 noundef 1718642541, ptr noundef %1, ptr noundef nonnull %3) #22
  %.not = icmp eq i32 %6, 0
  %7 = getelementptr inbounds i8, ptr %0, i64 1112
  br i1 %.not, label %9, label %8

8:                                                ; preds = %2
  call void @llvm.memset.p0.i64(ptr noundef nonnull align 8 dereferenceable(16) %7, i8 0, i64 16, i1 false)
  br label %13

9:                                                ; preds = %2
  %10 = load i64, ptr %3, align 8
  store i64 %10, ptr %7, align 8
  %11 = getelementptr inbounds i8, ptr %0, i64 1120
  %12 = call i32 @FT_Stream_ExtractFrame(ptr noundef %1, i64 noundef %10, ptr noundef nonnull %11) #22
  br label %13

13:                                               ; preds = %9, %8
  %.0 = phi i32 [ 0, %8 ], [ %12, %9 ]
  ret i32 %.0
}